; Function Attrs: nofree norecurse nosync nounwind memory(read, argmem: readwrite, inaccessiblemem: none) uwtable
define dso_local range(i32 -2, 1) i32 @pair_chunk(ptr noundef readonly captures(none) %0, i32 noundef %1, ptr noundef writeonly captures(none) %2, ptr noundef writeonly captures(none) %3) local_unnamed_addr #8 {
  %5 = getelementptr inbounds nuw i8, ptr %0, i64 16
  %6 = load i64, ptr %5, align 8, !tbaa !13
  %.not.i = icmp eq i64 %6, 0
  br i1 %.not.i, label %read_chunk.exit, label %.lr.ph.i

.lr.ph.i:                                         ; preds = %4
  %7 = getelementptr inbounds nuw i8, ptr %0, i64 8
  %8 = load ptr, ptr %7, align 8, !tbaa !12
  br label %10

9:                                                ; preds = %10
  %indvars.iv.next.i = add nuw i64 %indvars.iv.i, 1
  %exitcond.not.i = icmp eq i64 %indvars.iv.next.i, %6
  br i1 %exitcond.not.i, label %read_chunk.exit, label %10, !llvm.loop !59

10:                                               ; preds = %9, %.lr.ph.i
  %indvars.iv.i = phi i64 [ 0, %.lr.ph.i ], [ %indvars.iv.next.i, %9 ]
  %11 = getelementptr inbounds nuw %struct.chunk_info, ptr %8, i64 %indvars.iv.i
  %12 = load i32, ptr %11, align 8, !tbaa !15
  %13 = icmp eq i32 %12, %1
  br i1 %13, label %14, label %9

14:                                               ; preds = %10
  %15 = getelementptr inbounds nuw i8, ptr %11, i64 24
  %16 = load ptr, ptr %15, align 8, !tbaa !57
  %17 = getelementptr inbounds nuw i8, ptr %11, i64 8
  %18 = load i64, ptr %17, align 8, !tbaa !19
  store ptr %16, ptr %2, align 8, !tbaa !60
  store i64 %18, ptr %3, align 8, !tbaa !31
  br label %read_chunk.exit

read_chunk.exit:                                  ; preds = %9, %4, %14
  %.012.i = phi i32 [ 0, %14 ], [ -2, %4 ], [ -2, %9 ]
  ret i32 %.012.i
}